; Function Attrs: nounwind sspstrong uwtable
define internal zeroext i8 @config_readb(ptr noundef readonly captures(none) %0, i64 noundef %1) #0 {
  %3 = getelementptr inbounds nuw i8, ptr %0, i64 32
  %4 = load ptr, ptr %3, align 8
  %5 = getelementptr inbounds nuw i8, ptr %0, i64 40
  %6 = getelementptr inbounds nuw i8, ptr %0, i64 104
  %7 = load i32, ptr %6, align 8
  %8 = zext i32 %7 to i64
  %9 = add i64 %1, %8
  %10 = load i64, ptr %5, align 8
  %11 = getelementptr inbounds nuw i8, ptr %0, i64 48
  %12 = load i8, ptr %11, align 8
  %13 = tail call zeroext i8 @qpci_io_readb(ptr noundef %4, i64 %10, i8 %12, i64 noundef %9) #3
  ret i8 %13
}